target datalayout = "e-m:e-p270:32:32-p271:32:32-p272:64:64-i64:64-i128:128-f80:128-n8:16:32:64-S128"
target triple = "x86_64-pc-linux-gnu"

%struct.Node = type { i32 }
%struct.CollateExpr = type { %struct.Expr, ptr, i32, i32 }
%struct.Expr = type { i32 }

; Function Attrs: inlinehint nounwind uwtable
define internal ptr @newNode(i64 noundef %0, i32 noundef %1) #3 {
  %3 = alloca i64, align 8
  %4 = alloca i32, align 4
  %5 = alloca ptr, align 8
  store i64 %0, ptr %3, align 8
  store i32 %1, ptr %4, align 4
  call void @llvm.lifetime.start.p0(i64 8, ptr %5) #6
  %6 = load i64, ptr %3, align 8
  %7 = call ptr @palloc0(i64 noundef %6)
  store ptr %7, ptr %5, align 8
  %8 = load i32, ptr %4, align 4
  %9 = load ptr, ptr %5, align 8
  %10 = getelementptr inbounds nuw %struct.Node, ptr %9, i32 0, i32 0
  store i32 %8, ptr %10, align 4
  %11 = load ptr, ptr %5, align 8
  call void @llvm.lifetime.end.p0(i64 8, ptr %5) #6
  ret ptr %11
}

; Function Attrs: nounwind uwtable
define dso_local ptr @coerce_to_target_type(ptr noundef %0, ptr noundef %1, i32 noundef %2, i32 noundef %3, i32 noundef %4, i32 noundef %5, i32 noundef %6, i32 noundef %7) #0 {
  %9 = alloca ptr, align 8
  %10 = alloca ptr, align 8
  %11 = alloca ptr, align 8
  %12 = alloca i32, align 4
  %13 = alloca i32, align 4
  %14 = alloca i32, align 4
  %15 = alloca i32, align 4
  %16 = alloca i32, align 4
  %17 = alloca i32, align 4
  %18 = alloca ptr, align 8
  %19 = alloca ptr, align 8
  %20 = alloca i32, align 4
  %21 = alloca ptr, align 8
  %22 = alloca ptr, align 8
  store ptr %0, ptr %10, align 8
  store ptr %1, ptr %11, align 8
  store i32 %2, ptr %12, align 4
  store i32 %3, ptr %13, align 4
  store i32 %4, ptr %14, align 4
  store i32 %5, ptr %15, align 4
  store i32 %6, ptr %16, align 4
  store i32 %7, ptr %17, align 4
  call void @llvm.lifetime.start.p0(i64 8, ptr %18) #6
  call void @llvm.lifetime.start.p0(i64 8, ptr %19) #6
  %23 = load i32, ptr %15, align 4
  %24 = call zeroext i1 @can_coerce_type(i32 noundef 1, ptr noundef %12, ptr noundef %13, i32 noundef %23)
  br i1 %24, label %26, label %25

25:                                               ; preds = %8
  store ptr null, ptr %9, align 8
  store i32 1, ptr %20, align 4
  br label %95

26:                                               ; preds = %8
  %27 = load ptr, ptr %11, align 8
  store ptr %27, ptr %19, align 8
  br label %28

28:                                               ; preds = %38, %26
  %29 = load ptr, ptr %11, align 8
  %30 = icmp ne ptr %29, null
  br i1 %30, label %31, label %36

31:                                               ; preds = %28
  %32 = load ptr, ptr %11, align 8
  %33 = getelementptr inbounds nuw %struct.Node, ptr %32, i32 0, i32 0
  %34 = load i32, ptr %33, align 4
  %35 = icmp eq i32 %34, 31
  br label %36

36:                                               ; preds = %31, %28
  %37 = phi i1 [ false, %28 ], [ %35, %31 ]
  br i1 %37, label %38, label %42

38:                                               ; preds = %36
  %39 = load ptr, ptr %11, align 8
  %40 = getelementptr inbounds nuw %struct.CollateExpr, ptr %39, i32 0, i32 1
  %41 = load ptr, ptr %40, align 8
  store ptr %41, ptr %11, align 8
  br label %28, !llvm.loop !4

42:                                               ; preds = %36
  %43 = load ptr, ptr %10, align 8
  %44 = load ptr, ptr %11, align 8
  %45 = load i32, ptr %12, align 4
  %46 = load i32, ptr %13, align 4
  %47 = load i32, ptr %14, align 4
  %48 = load i32, ptr %15, align 4
  %49 = load i32, ptr %16, align 4
  %50 = load i32, ptr %17, align 4
  %51 = call ptr @coerce_type(ptr noundef %43, ptr noundef %44, i32 noundef %45, i32 noundef %46, i32 noundef %47, i32 noundef %48, i32 noundef %49, i32 noundef %50)
  store ptr %51, ptr %18, align 8
  %52 = load ptr, ptr %18, align 8
  %53 = load i32, ptr %13, align 4
  %54 = load i32, ptr %14, align 4
  %55 = load i32, ptr %15, align 4
  %56 = load i32, ptr %16, align 4
  %57 = load i32, ptr %17, align 4
  %58 = load ptr, ptr %18, align 8
  %59 = load ptr, ptr %11, align 8
  %60 = icmp ne ptr %58, %59
  br i1 %60, label %61, label %67

61:                                               ; preds = %42
  %62 = load ptr, ptr %18, align 8
  %63 = getelementptr inbounds nuw %struct.Node, ptr %62, i32 0, i32 0
  %64 = load i32, ptr %63, align 4
  %65 = icmp eq i32 %64, 7
  %66 = xor i1 %65, true
  br label %67

67:                                               ; preds = %61, %42
  %68 = phi i1 [ false, %42 ], [ %66, %61 ]
  %69 = call ptr @coerce_type_typmod(ptr noundef %52, i32 noundef %53, i32 noundef %54, i32 noundef %55, i32 noundef %56, i32 noundef %57, i1 noundef zeroext %68)
  store ptr %69, ptr %18, align 8
  %70 = load ptr, ptr %11, align 8
  %71 = load ptr, ptr %19, align 8
  %72 = icmp ne ptr %70, %71
  br i1 %72, label %73, label %93

73:                                               ; preds = %67
  %74 = load i32, ptr %13, align 4
  %75 = call zeroext i1 @type_is_collatable(i32 noundef %74)
  br i1 %75, label %76, label %93

76:                                               ; preds = %73
  call void @llvm.lifetime.start.p0(i64 8, ptr %21) #6
  %77 = load ptr, ptr %19, align 8
  store ptr %77, ptr %21, align 8
  call void @llvm.lifetime.start.p0(i64 8, ptr %22) #6
  %78 = call ptr @newNode(i64 noundef 24, i32 noundef 31)
  store ptr %78, ptr %22, align 8
  %79 = load ptr, ptr %18, align 8
  %80 = load ptr, ptr %22, align 8
  %81 = getelementptr inbounds nuw %struct.CollateExpr, ptr %80, i32 0, i32 1
  store ptr %79, ptr %81, align 8
  %82 = load ptr, ptr %21, align 8
  %83 = getelementptr inbounds nuw %struct.CollateExpr, ptr %82, i32 0, i32 2
  %84 = load i32, ptr %83, align 8
  %85 = load ptr, ptr %22, align 8
  %86 = getelementptr inbounds nuw %struct.CollateExpr, ptr %85, i32 0, i32 2
  store i32 %84, ptr %86, align 8
  %87 = load ptr, ptr %21, align 8
  %88 = getelementptr inbounds nuw %struct.CollateExpr, ptr %87, i32 0, i32 3
  %89 = load i32, ptr %88, align 4
  %90 = load ptr, ptr %22, align 8
  %91 = getelementptr inbounds nuw %struct.CollateExpr, ptr %90, i32 0, i32 3
  store i32 %89, ptr %91, align 4
  %92 = load ptr, ptr %22, align 8
  store ptr %92, ptr %18, align 8
  call void @llvm.lifetime.end.p0(i64 8, ptr %22) #6
  call void @llvm.lifetime.end.p0(i64 8, ptr %21) #6
  br label %93

93:                                               ; preds = %76, %73, %67
  %94 = load ptr, ptr %18, align 8
  store ptr %94, ptr %9, align 8
  store i32 1, ptr %20, align 4
  br label %95

95:                                               ; preds = %93, %25
  call void @llvm.lifetime.end.p0(i64 8, ptr %19) #6
  call void @llvm.lifetime.end.p0(i64 8, ptr %18) #6
  %96 = load ptr, ptr %9, align 8
  ret ptr %96
}