; Function Attrs: nounwind uwtable
define dso_local ptr @coerce_to_target_type(ptr noundef %0, ptr noundef %1, i32 noundef %2, i32 noundef %3, i32 noundef %4, i32 noundef %5, i32 noundef %6, i32 noundef %7) local_unnamed_addr #0 {
  %9 = alloca i32, align 4
  %10 = alloca i32, align 4
  store i32 %2, ptr %9, align 4
  store i32 %3, ptr %10, align 4
  %11 = call zeroext i1 @can_coerce_type(i32 noundef 1, ptr noundef nonnull %9, ptr noundef nonnull %10, i32 noundef %5)
  br i1 %11, label %.preheader, label %34

.preheader:                                       ; preds = %8
  %.not38 = icmp eq ptr %1, null
  br i1 %.not38, label %.critedge.thread, label %.lr.ph

.lr.ph:                                           ; preds = %.preheader, %14
  %.03039 = phi ptr [ %16, %14 ], [ %1, %.preheader ]
  %12 = load i32, ptr %.03039, align 4
  %13 = icmp eq i32 %12, 31
  br i1 %13, label %14, label %.critedge

14:                                               ; preds = %.lr.ph
  %15 = getelementptr inbounds nuw i8, ptr %.03039, i64 8
  %16 = load ptr, ptr %15, align 8
  %.not = icmp eq ptr %16, null
  br i1 %.not, label %.critedge.thread, label %.lr.ph, !llvm.loop !4

.critedge:                                        ; preds = %.lr.ph
  %17 = tail call ptr @coerce_type(ptr noundef %0, ptr noundef nonnull %.03039, i32 noundef %2, i32 noundef %3, i32 noundef %4, i32 noundef %5, i32 noundef %6, i32 noundef %7)
  %.not34 = icmp eq ptr %17, %.03039
  br i1 %.not34, label %.critedge.thread, label %18

18:                                               ; preds = %.critedge
  %19 = load i32, ptr %17, align 4
  %20 = icmp ne i32 %19, 7
  br label %.critedge.thread

.critedge.thread:                                 ; preds = %14, %.preheader, %18, %.critedge
  %phi.call45 = phi ptr [ %17, %.critedge ], [ %17, %18 ], [ null, %.preheader ], [ null, %14 ]
  %.0303744 = phi ptr [ %.03039, %.critedge ], [ %.03039, %18 ], [ null, %.preheader ], [ null, %14 ]
  %21 = phi i1 [ false, %.critedge ], [ %20, %18 ], [ false, %.preheader ], [ false, %14 ]
  %22 = tail call fastcc ptr @coerce_type_typmod(ptr noundef %phi.call45, i32 noundef %3, i32 noundef %4, i32 noundef %5, i32 noundef %6, i32 noundef %7, i1 noundef zeroext %21)
  %.not35 = icmp eq ptr %.0303744, %1
  br i1 %.not35, label %34, label %23

23:                                               ; preds = %.critedge.thread
  %24 = tail call zeroext i1 @type_is_collatable(i32 noundef %3) #5
  br i1 %24, label %25, label %34

25:                                               ; preds = %23
  %26 = tail call noundef ptr @palloc0(i64 noundef 24) #5
  store i32 31, ptr %26, align 4
  %27 = getelementptr inbounds nuw i8, ptr %26, i64 8
  store ptr %22, ptr %27, align 8
  %28 = getelementptr inbounds nuw i8, ptr %1, i64 16
  %29 = load i32, ptr %28, align 8
  %30 = getelementptr inbounds nuw i8, ptr %26, i64 16
  store i32 %29, ptr %30, align 8
  %31 = getelementptr inbounds nuw i8, ptr %1, i64 20
  %32 = load i32, ptr %31, align 4
  %33 = getelementptr inbounds nuw i8, ptr %26, i64 20
  store i32 %32, ptr %33, align 4
  br label %34

34:                                               ; preds = %.critedge.thread, %23, %25, %8
  %.0 = phi ptr [ null, %8 ], [ %26, %25 ], [ %22, %23 ], [ %22, %.critedge.thread ]
  ret ptr %.0
}